target datalayout = "e-m:e-p270:32:32-p271:32:32-p272:64:64-i64:64-i128:128-f80:128-n8:16:32:64-S128"
target triple = "x86_64-pc-linux-gnu"

%struct.Vec_Int_t_ = type { i32, i32, ptr }

@.str = private unnamed_addr constant [7 x i8] c"%3d : \00", align 1
@.str.1 = private unnamed_addr constant [10 x i8] c"%s%d(%d) \00", align 1
@.str.2 = private unnamed_addr constant [2 x i8] c"+\00", align 1
@.str.3 = private unnamed_addr constant [2 x i8] c"-\00", align 1
@.str.4 = private unnamed_addr constant [2 x i8] c"\0A\00", align 1

; Function Attrs: inlinehint nounwind uwtable
define internal i32 @Abc_Lit2Var(i32 noundef %0) #4 {
  %2 = alloca i32, align 4
  store i32 %0, ptr %2, align 4, !tbaa !27
  %3 = load i32, ptr %2, align 4, !tbaa !27
  %4 = ashr i32 %3, 1
  ret i32 %4
}

; Function Attrs: inlinehint nounwind uwtable
define internal i32 @Abc_LitIsCompl(i32 noundef %0) #4 {
  %2 = alloca i32, align 4
  store i32 %0, ptr %2, align 4, !tbaa !27
  %3 = load i32, ptr %2, align 4, !tbaa !27
  %4 = and i32 %3, 1
  ret i32 %4
}

; Function Attrs: inlinehint nounwind uwtable
define internal i32 @Vec_IntEntry(ptr noundef %0, i32 noundef %1) #4 {
  %3 = alloca ptr, align 8
  %4 = alloca i32, align 4
  store ptr %0, ptr %3, align 8, !tbaa !10
  store i32 %1, ptr %4, align 4, !tbaa !27
  %5 = load ptr, ptr %3, align 8, !tbaa !10
  %6 = getelementptr inbounds nuw %struct.Vec_Int_t_, ptr %5, i32 0, i32 2
  %7 = load ptr, ptr %6, align 8, !tbaa !33
  %8 = load i32, ptr %4, align 4, !tbaa !27
  %9 = sext i32 %8 to i64
  %10 = getelementptr inbounds i32, ptr %7, i64 %9
  %11 = load i32, ptr %10, align 4, !tbaa !27
  ret i32 %11
}

; Function Attrs: inlinehint nounwind uwtable
define internal i32 @Vec_IntSize(ptr noundef %0) #4 {
  %2 = alloca ptr, align 8
  store ptr %0, ptr %2, align 8, !tbaa !10
  %3 = load ptr, ptr %2, align 8, !tbaa !10
  %4 = getelementptr inbounds nuw %struct.Vec_Int_t_, ptr %3, i32 0, i32 1
  %5 = load i32, ptr %4, align 4, !tbaa !29
  ret i32 %5
}

; Function Attrs: nounwind uwtable
define void @Txs_ManPrintFlopLits(ptr noundef %0, ptr noundef %1) #0 {
  %3 = alloca ptr, align 8
  %4 = alloca ptr, align 8
  %5 = alloca i32, align 4
  %6 = alloca i32, align 4
  store ptr %0, ptr %3, align 8, !tbaa !10
  store ptr %1, ptr %4, align 8, !tbaa !10
  call void @llvm.lifetime.start.p0(i64 4, ptr %5) #8
  call void @llvm.lifetime.start.p0(i64 4, ptr %6) #8
  %7 = load ptr, ptr %3, align 8, !tbaa !10
  %8 = call i32 @Vec_IntSize(ptr noundef %7)
  %9 = call i32 (ptr, ...) @printf(ptr noundef @.str, i32 noundef %8)
  store i32 0, ptr %5, align 4, !tbaa !27
  br label %10

10:                                               ; preds = %33, %2
  %11 = load i32, ptr %5, align 4, !tbaa !27
  %12 = load ptr, ptr %3, align 8, !tbaa !10
  %13 = call i32 @Vec_IntSize(ptr noundef %12)
  %14 = icmp slt i32 %11, %13
  br i1 %14, label %15, label %19

15:                                               ; preds = %10
  %16 = load ptr, ptr %3, align 8, !tbaa !10
  %17 = load i32, ptr %5, align 4, !tbaa !27
  %18 = call i32 @Vec_IntEntry(ptr noundef %16, i32 noundef %17)
  store i32 %18, ptr %6, align 4, !tbaa !27
  br label %19

19:                                               ; preds = %15, %10
  %20 = phi i1 [ false, %10 ], [ true, %15 ]
  br i1 %20, label %21, label %36

21:                                               ; preds = %19
  %22 = load i32, ptr %6, align 4, !tbaa !27
  %23 = call i32 @Abc_LitIsCompl(i32 noundef %22)
  %24 = icmp ne i32 %23, 0
  %25 = select i1 %24, ptr @.str.2, ptr @.str.3
  %26 = load i32, ptr %6, align 4, !tbaa !27
  %27 = call i32 @Abc_Lit2Var(i32 noundef %26)
  %28 = load ptr, ptr %4, align 8, !tbaa !10
  %29 = load i32, ptr %6, align 4, !tbaa !27
  %30 = call i32 @Abc_Lit2Var(i32 noundef %29)
  %31 = call i32 @Vec_IntEntry(ptr noundef %28, i32 noundef %30)
  %32 = call i32 (ptr, ...) @printf(ptr noundef @.str.1, ptr noundef %25, i32 noundef %27, i32 noundef %31)
  br label %33

33:                                               ; preds = %21
  %34 = load i32, ptr %5, align 4, !tbaa !27
  %35 = add nsw i32 %34, 1
  store i32 %35, ptr %5, align 4, !tbaa !27
  br label %10, !llvm.loop !71

36:                                               ; preds = %19
  %37 = call i32 (ptr, ...) @printf(ptr noundef @.str.4)
  call void @llvm.lifetime.end.p0(i64 4, ptr %6) #8
  call void @llvm.lifetime.end.p0(i64 4, ptr %5) #8
  ret void
}