; Function Attrs: nofree nounwind uwtable
define void @Txs_ManPrintFlopLits(ptr noundef readonly captures(none) %0, ptr noundef readonly captures(none) %1) local_unnamed_addr #7 {
  %3 = getelementptr i8, ptr %0, i64 4
  %.val9 = load i32, ptr %3, align 4, !tbaa !12
  %4 = tail call i32 (ptr, ...) @printf(ptr noundef nonnull dereferenceable(1) @.str, i32 noundef %.val9)
  %.val12 = load i32, ptr %3, align 4, !tbaa !12
  %5 = icmp sgt i32 %.val12, 0
  br i1 %5, label %.lr.ph, label %.critedge

.lr.ph:                                           ; preds = %2
  %6 = getelementptr i8, ptr %0, i64 8
  %7 = getelementptr i8, ptr %1, i64 8
  br label %8

8:                                                ; preds = %.lr.ph, %8
  %indvars.iv = phi i64 [ 0, %.lr.ph ], [ %indvars.iv.next, %8 ]
  %.val11 = load ptr, ptr %6, align 8, !tbaa !17
  %9 = getelementptr inbounds nuw i32, ptr %.val11, i64 %indvars.iv
  %10 = load i32, ptr %9, align 4, !tbaa !46
  %11 = and i32 %10, 1
  %.not = icmp eq i32 %11, 0
  %12 = select i1 %.not, ptr @.str.3, ptr @.str.2
  %13 = ashr i32 %10, 1
  %.val10 = load ptr, ptr %7, align 8, !tbaa !17
  %14 = sext i32 %13 to i64
  %15 = getelementptr inbounds i32, ptr %.val10, i64 %14
  %16 = load i32, ptr %15, align 4, !tbaa !46
  %17 = tail call i32 (ptr, ...) @printf(ptr noundef nonnull dereferenceable(1) @.str.1, ptr noundef nonnull %12, i32 noundef %13, i32 noundef %16)
  %indvars.iv.next = add nuw nsw i64 %indvars.iv, 1
  %.val = load i32, ptr %3, align 4, !tbaa !12
  %18 = sext i32 %.val to i64
  %19 = icmp slt i64 %indvars.iv.next, %18
  br i1 %19, label %8, label %.critedge, !llvm.loop !63

.critedge:                                        ; preds = %8, %2
  %putchar = tail call i32 @putchar(i32 10)
  ret void
}